target datalayout = "e-m:e-p270:32:32-p271:32:32-p272:64:64-i64:64-i128:128-f80:128-n8:16:32:64-S128"
target triple = "x86_64-pc-linux-gnu"

@_ZN6icu_77L12gPluralFormsE = internal constant [6 x ptr] [ptr @.str, ptr @.str.1, ptr @.str.2, ptr @.str.3, ptr @.str.4, ptr @.str.5], align 16

; Function Attrs: mustprogress nounwind uwtable
define noundef ptr @_ZN6icu_7713PluralMapBase15getCategoryNameENS0_8CategoryE(i32 noundef %0) #0 align 2 {
  %2 = alloca i32, align 4
  %3 = alloca i32, align 4
  store i32 %0, ptr %2, align 4, !tbaa !32
  call void @llvm.lifetime.start.p0(i64 4, ptr %3) #10
  %4 = load i32, ptr %2, align 4, !tbaa !32
  store i32 %4, ptr %3, align 4, !tbaa !14
  %5 = load i32, ptr %3, align 4, !tbaa !14
  %6 = icmp slt i32 %5, 0
  br i1 %6, label %10, label %7

7:                                                ; preds = %1
  %8 = load i32, ptr %3, align 4, !tbaa !14
  %9 = icmp sge i32 %8, 6
  br i1 %9, label %10, label %11

10:                                               ; preds = %7, %1
  br label %16

11:                                               ; preds = %7
  %12 = load i32, ptr %3, align 4, !tbaa !14
  %13 = sext i32 %12 to i64
  %14 = getelementptr inbounds [6 x ptr], ptr @_ZN6icu_77L12gPluralFormsE, i64 0, i64 %13
  %15 = load ptr, ptr %14, align 8, !tbaa !17
  br label %16

16:                                               ; preds = %11, %10
  %17 = phi ptr [ null, %10 ], [ %15, %11 ]
  call void @llvm.lifetime.end.p0(i64 4, ptr %3) #10
  ret ptr %17
}