; Function Attrs: mustprogress nofree norecurse nosync nounwind willreturn memory(none) uwtable
define noundef ptr @_ZN6icu_7713PluralMapBase15getCategoryNameENS0_8CategoryE(i32 noundef %0) local_unnamed_addr #12 align 2 {
  %or.cond = icmp ugt i32 %0, 5
  br i1 %or.cond, label %6, label %2

2:                                                ; preds = %1
  %3 = zext nneg i32 %0 to i64
  %4 = getelementptr inbounds nuw [6 x ptr], ptr @_ZN6icu_77L12gPluralFormsE, i64 0, i64 %3
  %5 = load ptr, ptr %4, align 8, !tbaa !15
  br label %6

6:                                                ; preds = %1, %2
  %7 = phi ptr [ %5, %2 ], [ null, %1 ]
  ret ptr %7
}